; Function Attrs: mustprogress uwtable
define noundef ptr @_ZNK7openvdb5v11_011compression4Page6bufferEi(ptr nocapture noundef nonnull align 8 dereferenceable(17) %this, i32 noundef %index) local_unnamed_addr #4 align 2 {
entry:
  %0 = load ptr, ptr %this, align 8
  %cmp.i.i.not = icmp eq ptr %0, null
  br i1 %cmp.i.i.not, label %if.end, label %if.then

if.then:                                          ; preds = %entry
  tail call void @_ZNK7openvdb5v11_011compression4Page6doLoadEv(ptr noundef nonnull align 8 dereferenceable(17) %this)
  br label %if.end

if.end:                                           ; preds = %if.then, %entry
  %mData = getelementptr inbounds i8, ptr %this, i64 8
  %1 = load ptr, ptr %mData, align 8
  %idx.ext = sext i32 %index to i64
  %add.ptr = getelementptr inbounds i8, ptr %1, i64 %idx.ext
  ret ptr %add.ptr
}